target datalayout = "e-m:e-p270:32:32-p271:32:32-p272:64:64-i64:64-i128:128-f80:128-n8:16:32:64-S128"
target triple = "x86_64-pc-linux-gnu"

%"class.icu_77::FieldPositionHandler" = type <{ ptr, i32, [4 x i8] }>
%"class.icu_77::FieldPositionHandler.base" = type <{ ptr, i32 }>
%"class.icu_77::FieldPositionIteratorHandler" = type { %"class.icu_77::FieldPositionHandler.base", ptr, ptr, i32, i32 }

; Function Attrs: inlinehint mustprogress nounwind uwtable
define linkonce_odr void @_ZN6icu_7720FieldPositionHandlerC2Ev(ptr noundef nonnull align 8 dereferenceable(12) %0) unnamed_addr #2 comdat align 2 {
  %2 = alloca ptr, align 8
  store ptr %0, ptr %2, align 8, !tbaa !3
  %3 = load ptr, ptr %2, align 8
  store ptr getelementptr inbounds inrange(-16, 40) ({ [7 x ptr] }, ptr @_ZTVN6icu_7720FieldPositionHandlerE, i32 0, i32 0, i32 2), ptr %3, align 8, !tbaa !16
  %4 = getelementptr inbounds nuw %"class.icu_77::FieldPositionHandler", ptr %3, i32 0, i32 1
  store i32 0, ptr %4, align 8, !tbaa !10
  ret void
}

; Function Attrs: mustprogress nounwind uwtable
define void @_ZN6icu_7728FieldPositionIteratorHandlerC2EPNS_9UVector32ER10UErrorCode(ptr noundef nonnull align 8 dereferenceable(40) %0, ptr noundef %1, ptr noundef nonnull align 4 dereferenceable(4) %2) unnamed_addr #0 align 2 {
  %4 = alloca ptr, align 8
  %5 = alloca ptr, align 8
  %6 = alloca ptr, align 8
  store ptr %0, ptr %4, align 8, !tbaa !28
  store ptr %1, ptr %5, align 8, !tbaa !42
  store ptr %2, ptr %6, align 8, !tbaa !32
  %7 = load ptr, ptr %4, align 8
  call void @_ZN6icu_7720FieldPositionHandlerC2Ev(ptr noundef nonnull align 8 dereferenceable(12) %7) #10
  store ptr getelementptr inbounds inrange(-16, 40) ({ [7 x ptr] }, ptr @_ZTVN6icu_7728FieldPositionIteratorHandlerE, i32 0, i32 0, i32 2), ptr %7, align 8, !tbaa !16
  %8 = getelementptr inbounds nuw %"class.icu_77::FieldPositionIteratorHandler", ptr %7, i32 0, i32 1
  store ptr null, ptr %8, align 8, !tbaa !33
  %9 = getelementptr inbounds nuw %"class.icu_77::FieldPositionIteratorHandler", ptr %7, i32 0, i32 2
  %10 = load ptr, ptr %5, align 8, !tbaa !42
  store ptr %10, ptr %9, align 8, !tbaa !38
  %11 = getelementptr inbounds nuw %"class.icu_77::FieldPositionIteratorHandler", ptr %7, i32 0, i32 3
  %12 = load ptr, ptr %6, align 8, !tbaa !32
  %13 = load i32, ptr %12, align 4, !tbaa !39
  store i32 %13, ptr %11, align 8, !tbaa !40
  %14 = getelementptr inbounds nuw %"class.icu_77::FieldPositionIteratorHandler", ptr %7, i32 0, i32 4
  store i32 0, ptr %14, align 4, !tbaa !41
  ret void
}