; Function Attrs: mustprogress nofree norecurse nosync nounwind willreturn memory(argmem: readwrite) uwtable
define void @_ZN6icu_7728FieldPositionIteratorHandlerC2EPNS_9UVector32ER10UErrorCode(ptr noundef nonnull writeonly align 8 captures(none) dereferenceable(40) initializes((0, 12), (16, 40)) %0, ptr noundef %1, ptr noundef nonnull readonly align 4 captures(none) dereferenceable(4) %2) unnamed_addr #10 align 2 {
  %4 = getelementptr inbounds nuw i8, ptr %0, i64 8
  store i32 0, ptr %4, align 8, !tbaa !3
  store ptr getelementptr inbounds nuw inrange(-16, 40) (i8, ptr @_ZTVN6icu_7728FieldPositionIteratorHandlerE, i64 16), ptr %0, align 8, !tbaa !8
  %5 = getelementptr inbounds nuw i8, ptr %0, i64 16
  store ptr null, ptr %5, align 8, !tbaa !22
  %6 = getelementptr inbounds nuw i8, ptr %0, i64 24
  store ptr %1, ptr %6, align 8, !tbaa !28
  %7 = getelementptr inbounds nuw i8, ptr %0, i64 32
  %8 = load i32, ptr %2, align 4, !tbaa !29
  store i32 %8, ptr %7, align 8, !tbaa !30
  %9 = getelementptr inbounds nuw i8, ptr %0, i64 36
  store i32 0, ptr %9, align 4, !tbaa !31
  ret void
}